Certificate:
    Data:
        Version: 3 (0x2)
        Serial Number: 15 (0xf)
    Signature Algorithm: ecdsa-with-SHA384
        Issuer: C=US, ST=CA, L=Cupertino, O=Intermediate
        Validity
            Not Before: Jan  5 21:37:31 2023 GMT
            Not After : Jan  1 21:37:31 2033 GMT
        Subject: C=US, ST=CA, L=Cupertino, O=Leaf
        Subject Public Key Info:
            Public Key Algorithm: id-ecPublicKey
                Public-Key: (256 bit)
                pub: 
                    04:e2:b5:81:c4:69:85:6e:73:c8:3d:02:34:ce:c0:
                    4a:cc:bc:6c:8f:ca:43:da:fa:9b:af:4c:8f:21:25:
                    31:d9:64:32:c6:6a:cd:aa:5f:5f:84:af:18:10:4c:
                    98:15:5e:fe:fa:9e:62:e1:85:12:47:fa:3d:b9:02:
                    20:08:f2:21:ac
                ASN1 OID: prime256v1
                NIST CURVE: P-256
        X509v3 extensions:
            X509v3 Basic Constraints: 
                CA:FALSE
            X509v3 Key Usage: critical
                Digital Signature
            1.2.840.113635.100.6.11.2: 
                ..
    Signature Algorithm: ecdsa-with-SHA384
         30:45:02:20:1b:fb:b4:b7:8b:ff:db:48:6c:bb:b2:42:58:f7:
         e0:f8:56:07:10:2c:a1:5e:61:f2:0c:4a:b5:02:99:da:c5:ab:
         02:21:00:83:15:c3:30:f5:46:bc:4f:46:d2:72:88:e0:97:2f:
         28:9b:22:fc:1c:63:e5:52:ef:71:d8:7e:4d:0e:f6:58:33
-----BEGIN CERTIFICATE-----
MIIBoDCCAUagAwIBAgIBDzAKBggqhkjOPQQDAzBFMQswCQYDVQQGEwJVUzELMAkG
A1UECAwCQ0ExEjAQBgNVBAcMCUN1cGVydGlubzEVMBMGA1UECgwMSW50ZXJtZWRp
YXRlMB4XDTIzMDEwNTIxMzczMVoXDTMzMDEwMTIxMzczMVowPTELMAkGA1UEBhMC
VVMxCzAJBgNVBAgMAkNBMRIwEAYDVQQHDAlDdXBlcnRpbm8xDTALBgNVBAoMBExl
YWYwWTATBgcqhkjOPQIBBggqhkjOPQMBBwNCAATitYHEaYVuc8g9AjTOwErMvGyP
ykPa+puvTI8hJTHZZDLGas2qX1+ErxgQTJgVXv76nmLhhRJH+j25AiAI8iGsoy8w
LTAJBgNVHRMEAjAAMA4GA1UdDwEB/wQEAwIHgDAQBgoqhkiG92NkBgsCBAIFADAK
BggqhkjOPQQDAwNIADBFAiAb+7S3i//bSGy7skJY9+D4VgcQLKFeYfIMSrUCmdrF
qwIhAIMVwzD1RrxPRtJyiOCXLyibIvwcY+VS73HYfk0O9lgz
-----END CERTIFICATE-----
