Certificate:
    Data:
        Version: 3 (0x2)
        Serial Number: 12 (0xc)
    Signature Algorithm: ecdsa-with-SHA384
        Issuer: C=US, ST=CA, L=Cupertino, O=Intermediate
        Validity
            Not Before: Jan  5 21:31:34 2023 GMT
            Not After : Jan  1 21:31:34 2033 GMT
        Subject: C=US, ST=CA, L=Cupertino, O=Leaf
        Subject Public Key Info:
            Public Key Algorithm: id-ecPublicKey
                Public-Key: (256 bit)
                pub: 
                    04:e2:b5:81:c4:69:85:6e:73:c8:3d:02:34:ce:c0:
                    4a:cc:bc:6c:8f:ca:43:da:fa:9b:af:4c:8f:21:25:
                    31:d9:64:32:c6:6a:cd:aa:5f:5f:84:af:18:10:4c:
                    98:15:5e:fe:fa:9e:62:e1:85:12:47:fa:3d:b9:02:
                    20:08:f2:21:ac
                ASN1 OID: prime256v1
                NIST CURVE: P-256
        X509v3 extensions:
            X509v3 Basic Constraints: 
                CA:FALSE
            X509v3 Key Usage: critical
                Digital Signature
            1.2.840.113635.100.6.11.1: 
                ..
    Signature Algorithm: ecdsa-with-SHA384
         30:45:02:20:57:e1:cf:93:d0:5a:79:9c:9e:50:44:29:51:7e:
         ee:4f:48:1c:91:bc:d3:ed:b9:a4:ec:93:4b:cf:07:75:80:20:
         02:21:00:d8:1a:6a:e0:23:fd:83:fd:b3:40:24:12:1c:89:87:
         14:0e:ff:a4:36:ce:8b:99:f8:7d:42:20:e7:a1:9c:cc:d0
-----BEGIN CERTIFICATE-----
MIIBoDCCAUagAwIBAgIBDDAKBggqhkjOPQQDAzBFMQswCQYDVQQGEwJVUzELMAkG
A1UECAwCQ0ExEjAQBgNVBAcMCUN1cGVydGlubzEVMBMGA1UECgwMSW50ZXJtZWRp
YXRlMB4XDTIzMDEwNTIxMzEzNFoXDTMzMDEwMTIxMzEzNFowPTELMAkGA1UEBhMC
VVMxCzAJBgNVBAgMAkNBMRIwEAYDVQQHDAlDdXBlcnRpbm8xDTALBgNVBAoMBExl
YWYwWTATBgcqhkjOPQIBBggqhkjOPQMBBwNCAATitYHEaYVuc8g9AjTOwErMvGyP
ykPa+puvTI8hJTHZZDLGas2qX1+ErxgQTJgVXv76nmLhhRJH+j25AiAI8iGsoy8w
LTAJBgNVHRMEAjAAMA4GA1UdDwEB/wQEAwIHgDAQBgoqhkiG92NkBgsBBAIFADAK
BggqhkjOPQQDAwNIADBFAiBX4c+T0Fp5nJ5QRClRfu5PSByRvNPtuaTsk0vPB3WA
IAIhANgaauAj/YP9s0AkEhyJhxQO/6Q2zouZ+H1CIOehnMzQ
-----END CERTIFICATE-----
