Certificate:
    Data:
        Version: 3 (0x2)
        Serial Number: 14 (0xe)
    Signature Algorithm: ecdsa-with-SHA384
        Issuer: C=US, ST=CA, L=Cupertino, O=Intermediate
        Validity
            Not Before: Jan  5 21:36:58 2023 GMT
            Not After : Jan  1 21:36:58 2033 GMT
        Subject: C=US, ST=CA, L=Cupertino, O=Leaf
        Subject Public Key Info:
            Public Key Algorithm: id-ecPublicKey
                Public-Key: (256 bit)
                pub: 
                    04:e2:b5:81:c4:69:85:6e:73:c8:3d:02:34:ce:c0:
                    4a:cc:bc:6c:8f:ca:43:da:fa:9b:af:4c:8f:21:25:
                    31:d9:64:32:c6:6a:cd:aa:5f:5f:84:af:18:10:4c:
                    98:15:5e:fe:fa:9e:62:e1:85:12:47:fa:3d:b9:02:
                    20:08:f2:21:ac
                ASN1 OID: prime256v1
                NIST CURVE: P-256
        X509v3 extensions:
            X509v3 Basic Constraints: 
                CA:FALSE
            X509v3 Key Usage: critical
                Digital Signature
            1.2.840.113635.100.6.11.1: 
                ..
    Signature Algorithm: ecdsa-with-SHA384
         30:44:02:20:14:02:cf:a0:cd:83:ac:11:70:f0:42:ab:af:1d:
         86:dc:57:29:b2:36:a0:ed:1b:0f:41:9d:41:69:d9:82:ee:b8:
         02:20:5f:14:37:21:ef:58:53:47:0c:aa:47:9a:15:df:a5:ca:
         8d:1a:b2:ff:5e:cb:39:3a:b2:dc:23:78:87:8e:b5:35
-----BEGIN CERTIFICATE-----
MIIBnzCCAUagAwIBAgIBDjAKBggqhkjOPQQDAzBFMQswCQYDVQQGEwJVUzELMAkG
A1UECAwCQ0ExEjAQBgNVBAcMCUN1cGVydGlubzEVMBMGA1UECgwMSW50ZXJtZWRp
YXRlMB4XDTIzMDEwNTIxMzY1OFoXDTMzMDEwMTIxMzY1OFowPTELMAkGA1UEBhMC
VVMxCzAJBgNVBAgMAkNBMRIwEAYDVQQHDAlDdXBlcnRpbm8xDTALBgNVBAoMBExl
YWYwWTATBgcqhkjOPQIBBggqhkjOPQMBBwNCAATitYHEaYVuc8g9AjTOwErMvGyP
ykPa+puvTI8hJTHZZDLGas2qX1+ErxgQTJgVXv76nmLhhRJH+j25AiAI8iGsoy8w
LTAJBgNVHRMEAjAAMA4GA1UdDwEB/wQEAwIHgDAQBgoqhkiG92NkBgsBBAIFADAK
BggqhkjOPQQDAwNHADBEAiAUAs+gzYOsEXDwQquvHYbcVymyNqDtGw9BnUFp2YLu
uAIgXxQ3Ie9YU0cMqkeaFd+lyo0asv9eyzk6stwjeIeOtTU=
-----END CERTIFICATE-----
