Certificate:
    Data:
        Version: 3 (0x2)
        Serial Number: 13 (0xd)
    Signature Algorithm: ecdsa-with-SHA384
        Issuer: C=US, ST=California, L=Cupertino
        Validity
            Not Before: Jan  5 21:36:14 2023 GMT
            Not After : Jan  1 21:36:14 2033 GMT
        Subject: C=US, ST=CA, L=Cupertino, O=Intermediate
        Subject Public Key Info:
            Public Key Algorithm: id-ecPublicKey
                Public-Key: (256 bit)
                pub: 
                    04:15:0d:e5:5f:6b:2a:37:d1:88:c0:08:a2:31:00:
                    d0:0b:f9:32:9d:28:17:e3:b4:70:be:20:ce:b4:c5:
                    d7:bf:22:9d:41:ee:82:3e:c4:b7:8e:8d:ae:44:3b:
                    84:a8:0c:56:78:e8:82:ae:39:43:5a:cc:b3:e7:0c:
                    1d:53:48:2d:6a
                ASN1 OID: prime256v1
                NIST CURVE: P-256
        X509v3 extensions:
            X509v3 Basic Constraints: 
                CA:TRUE, pathlen:0
            X509v3 Key Usage: critical
                Certificate Sign, CRL Sign
            1.2.840.113635.100.6.2.2: 
                ..
    Signature Algorithm: ecdsa-with-SHA384
         30:44:02:20:54:4e:b5:31:3e:45:0a:4a:c4:d5:c4:4c:5b:1f:
         ec:c7:34:87:ee:48:02:cc:71:a3:f5:fa:a0:20:bf:73:7d:ea:
         02:20:26:0b:9a:e7:e7:20:8e:38:48:d3:63:84:75:1f:54:1c:
         41:58:7e:79:4c:02:97:5d:cd:6d:0c:56:0a:ec:31:c4
-----BEGIN CERTIFICATE-----
MIIBnjCCAUWgAwIBAgIBDTAKBggqhkjOPQQDAzA2MQswCQYDVQQGEwJVUzETMBEG
A1UECAwKQ2FsaWZvcm5pYTESMBAGA1UEBwwJQ3VwZXJ0aW5vMB4XDTIzMDEwNTIx
MzYxNFoXDTMzMDEwMTIxMzYxNFowRTELMAkGA1UEBhMCVVMxCzAJBgNVBAgMAkNB
MRIwEAYDVQQHDAlDdXBlcnRpbm8xFTATBgNVBAoMDEludGVybWVkaWF0ZTBZMBMG
ByqGSM49AgEGCCqGSM49AwEHA0IABBUN5V9rKjfRiMAIojEA0Av5Mp0oF+O0cL4g
zrTF178inUHugj7Et46NrkQ7hKgMVnjogq45Q1rMs+cMHVNILWqjNTAzMA8GA1Ud
EwQIMAYBAf8CAQAwDgYDVR0PAQH/BAQDAgEGMBAGCiqGSIb3Y2QGAgIEAgUAMAoG
CCqGSM49BAMDA0cAMEQCIFROtTE+RQpKxNXETFsf7Mc0h+5IAsxxo/X6oCC/c33q
AiAmC5rn5yCOOEjTY4R1H1QcQVh+eUwCl13NbQxWCuwxxA==
-----END CERTIFICATE-----
