Certificate:
    Data:
        Version: 3 (0x2)
        Serial Number: 11 (0xb)
    Signature Algorithm: ecdsa-with-SHA384
        Issuer: C=US, ST=California, L=Cupertino
        Validity
            Not Before: Jan  5 21:31:05 2023 GMT
            Not After : Jan  1 21:31:05 2033 GMT
        Subject: C=US, ST=CA, L=Cupertino, O=Intermediate
        Subject Public Key Info:
            Public Key Algorithm: id-ecPublicKey
                Public-Key: (256 bit)
                pub: 
                    04:15:0d:e5:5f:6b:2a:37:d1:88:c0:08:a2:31:00:
                    d0:0b:f9:32:9d:28:17:e3:b4:70:be:20:ce:b4:c5:
                    d7:bf:22:9d:41:ee:82:3e:c4:b7:8e:8d:ae:44:3b:
                    84:a8:0c:56:78:e8:82:ae:39:43:5a:cc:b3:e7:0c:
                    1d:53:48:2d:6a
                ASN1 OID: prime256v1
                NIST CURVE: P-256
        X509v3 extensions:
            X509v3 Basic Constraints: 
                CA:TRUE, pathlen:0
            X509v3 Key Usage: critical
                Certificate Sign, CRL Sign
            1.2.840.113635.100.6.2.1: 
                ..
    Signature Algorithm: ecdsa-with-SHA384
         30:45:02:21:00:a6:b0:82:98:b3:8d:6e:96:5b:2c:1d:7e:2b:
         56:f7:94:4f:46:7b:22:ce:7f:84:b2:b5:94:53:d3:b6:e9:f7:
         84:02:20:73:6f:b6:44:6e:7e:80:d7:05:55:cb:3e:5c:97:84:
         97:81:99:fa:88:e5:dd:13:8e:9a:59:7e:c9:ee:dd:ca:74
-----BEGIN CERTIFICATE-----
MIIBnzCCAUWgAwIBAgIBCzAKBggqhkjOPQQDAzA2MQswCQYDVQQGEwJVUzETMBEG
A1UECAwKQ2FsaWZvcm5pYTESMBAGA1UEBwwJQ3VwZXJ0aW5vMB4XDTIzMDEwNTIx
MzEwNVoXDTMzMDEwMTIxMzEwNVowRTELMAkGA1UEBhMCVVMxCzAJBgNVBAgMAkNB
MRIwEAYDVQQHDAlDdXBlcnRpbm8xFTATBgNVBAoMDEludGVybWVkaWF0ZTBZMBMG
ByqGSM49AgEGCCqGSM49AwEHA0IABBUN5V9rKjfRiMAIojEA0Av5Mp0oF+O0cL4g
zrTF178inUHugj7Et46NrkQ7hKgMVnjogq45Q1rMs+cMHVNILWqjNTAzMA8GA1Ud
EwQIMAYBAf8CAQAwDgYDVR0PAQH/BAQDAgEGMBAGCiqGSIb3Y2QGAgEEAgUAMAoG
CCqGSM49BAMDA0gAMEUCIQCmsIKYs41ullssHX4rVveUT0Z7Is5/hLK1lFPTtun3
hAIgc2+2RG5+gNcFVcs+XJeEl4GZ+ojl3ROOmll+ye7dynQ=
-----END CERTIFICATE-----
